Certificate:
    Data:
        Version: 3 (0x2)
        Serial Number: 4097 (0x1001)
    Signature Algorithm: md5WithRSAEncryption
        Issuer: C=US, ST=Utah, O=anirudhlath, CN=ca-host
        Validity
            Not Before: Apr  7 20:11:12 2022 GMT
            Not After : Apr  7 20:11:12 2023 GMT
        Subject: C=US, ST=Utah, O=anirudhlath, CN=client-host
        Subject Public Key Info:
            Public Key Algorithm: rsaEncryption
                Public-Key: (4096 bit)
                Modulus:
                    00:bb:bf:70:79:2d:19:6d:43:ce:47:b2:f3:3b:f4:
                    1b:49:da:ee:af:ad:b2:2a:63:35:f3:b1:fa:f0:8a:
                    e7:09:d2:cc:b2:5a:13:5f:f4:29:f1:be:45:fd:97:
                    6e:62:b9:22:05:ed:1b:07:2d:ba:56:51:1d:2e:85:
                    42:cb:40:b3:b0:1e:81:d2:2a:20:13:16:20:a8:21:
                    59:e6:a1:4c:3a:9b:cd:d9:dc:34:cd:a7:99:c0:0a:
                    48:bc:d2:99:c4:13:09:e5:53:84:ab:02:ce:5f:b0:
                    b3:4e:6e:d5:ac:29:8b:fb:b2:5e:ce:b3:a3:27:00:
                    99:bb:e4:dc:48:7b:a1:79:2b:78:2f:63:82:83:44:
                    65:96:85:29:65:b9:8d:18:4b:f5:55:31:68:57:96:
                    4c:38:5b:98:28:49:bf:b9:43:ed:ab:b5:bc:20:fa:
                    a6:24:a1:a1:ac:46:7b:18:be:9a:f7:a1:3f:e2:9e:
                    60:78:5a:07:c3:8f:1f:ce:ef:6c:e3:d5:68:17:52:
                    12:6a:88:00:f4:08:44:ab:af:e9:9f:e2:ad:28:1a:
                    0a:11:a9:69:6c:0b:d0:88:db:d2:dd:fd:25:5a:81:
                    b8:c0:e5:e0:00:65:3f:a4:3a:a7:0a:d1:6a:1a:ec:
                    ba:06:93:18:c8:95:e0:b7:1d:1b:30:45:d5:b5:f0:
                    32:71:07:17:a8:7c:58:92:48:84:b7:a8:41:29:df:
                    71:da:11:fb:6f:e1:80:4a:56:ba:bd:5b:1f:fb:c7:
                    46:e4:e7:b4:ba:de:8d:44:ed:e6:d1:51:32:47:ed:
                    71:63:f2:42:4e:44:9a:a5:f5:91:d8:c6:17:e3:47:
                    20:0c:3e:73:f7:2a:f4:cf:44:f0:7d:3c:18:5d:d5:
                    c7:ee:38:3c:eb:38:0f:6e:80:31:8f:e5:a1:d7:29:
                    ca:85:6b:99:8e:4b:a5:cc:58:5c:e4:81:b1:d9:77:
                    21:29:43:6a:c5:f7:44:b1:98:9a:2d:68:47:f2:5c:
                    5f:8e:8e:ed:f1:ae:86:18:d3:58:11:bc:fe:9a:29:
                    61:e1:09:1c:e7:15:51:df:9f:fa:01:32:02:f0:b5:
                    69:f8:a7:e0:5c:af:77:b8:b3:bc:38:e7:a3:3f:53:
                    5c:d3:e4:38:fb:f5:5e:1b:42:9f:3c:ba:66:4a:34:
                    40:04:b8:a0:af:e6:1a:12:d5:18:95:99:de:e6:65:
                    b0:17:d7:a7:d0:87:74:1e:bd:36:c0:f0:49:c6:79:
                    a1:1e:98:d1:d6:6d:ad:d8:d8:d6:b9:df:8c:f4:fc:
                    e3:3b:9e:52:ae:99:91:ca:ad:fd:c8:c0:56:20:f8:
                    2a:ab:7e:03:63:a0:e5:6a:f5:2f:87:a4:c0:e3:f3:
                    84:83:e3
                Exponent: 65537 (0x10001)
        X509v3 extensions:
            X509v3 Basic Constraints: 
                CA:FALSE
            Netscape Comment: 
                OpenSSL Generated Certificate
            X509v3 Subject Key Identifier: 
                83:E3:62:7B:BE:12:2B:F8:E2:0A:52:10:34:BB:42:24:6D:4A:00:AF
            X509v3 Authority Key Identifier: 
                DirName:/C=US/ST=Utah/O=anirudhlath/CN=ca-host
                serial:91:C7:B4:C4:91:F3:F5:C7

    Signature Algorithm: md5WithRSAEncryption
         31:c9:2c:27:fe:e9:d0:20:71:a6:8d:c8:ce:34:0f:fb:5c:3a:
         53:41:b4:7b:85:32:85:5a:ac:98:6a:31:b5:d0:73:89:9d:d5:
         4b:d1:25:ac:37:6d:7e:40:5d:b2:2c:74:c4:1f:ad:41:f2:4f:
         d1:b1:96:0b:47:5e:cb:9a:81:28:1f:91:c0:81:40:3f:e6:98:
         9c:d8:6f:74:29:6e:7a:1c:35:54:21:40:35:23:c1:13:27:05:
         b4:4d:1d:90:2a:b6:33:cd:f0:01:ba:00:cf:f2:bd:2d:f8:51:
         11:7d:63:a9:c4:00:99:0c:a0:e1:da:d9:4c:7e:d6:6d:70:72:
         3a:de:5f:be:4e:a8:bc:8b:dc:44:ae:2b:cc:f9:d3:b9:1a:fa:
         c9:53:6e:de:63:45:a3:5b:c5:01:0c:2b:b7:92:48:68:3e:b8:
         f8:32:2b:f5:c9:2a:28:52:14:d8:63:cc:a1:32:32:9a:2d:2b:
         97:a0:79:db:5d:d9:fc:e1:15:e1:b1:8d:e6:7f:99:d8:43:e2:
         bb:f9:7c:ba:8b:2a:ac:e2:09:f3:62:9a:db:81:97:5c:4c:30:
         d4:1a:8b:b2:77:d1:ee:6d:a3:39:fd:c2:ad:c3:5c:63:77:4a:
         1e:39:a8:e2:8b:30:0a:11:2d:44:b9:16:e9:19:79:c9:12:3e:
         1a:44:f4:77:df:9e:4d:6e:eb:18:32:83:60:04:8c:bc:00:b4:
         12:34:28:48:c8:d5:79:f1:db:d4:7e:cb:0b:cd:a5:3e:ec:6b:
         23:32:ea:23:fe:1d:26:c8:95:49:b3:b4:9f:98:64:8d:2b:41:
         3f:3b:49:29:57:23:0f:ad:f8:8f:16:10:2f:d2:b2:e1:0c:6e:
         29:a8:78:04:66:08:e0:2a:c9:39:0a:7e:37:06:40:f6:3a:f5:
         ae:09:e0:44:3a:c6:62:c2:1a:1f:6b:b4:fd:00:67:a2:0b:04:
         3d:be:01:27:16:e1:9c:bd:91:88:5b:e5:ab:98:72:18:4c:03:
         29:8a:00:53:73:40:3d:81:ce:30:2d:e4:5b:65:16:d6:99:45:
         0d:03:bc:8d:fe:c2:e0:e4:c8:ac:cf:f1:17:c4:46:52:0e:02:
         e1:78:fd:ef:ed:37:1d:3d:6f:e8:3a:2b:ce:e5:7b:f7:11:da:
         c3:80:79:05:13:d1:fb:f0:61:ec:25:5b:20:c1:bf:8f:89:de:
         a9:9c:1f:52:64:6c:4f:14:8d:ba:85:dd:9f:10:3e:66:a0:1f:
         68:b0:6d:1e:d8:7f:4d:c2:79:5a:32:7e:48:e6:a1:78:70:42:
         54:23:1a:6a:21:d7:15:27:2f:0a:ba:28:14:e5:b6:40:39:82:
         fc:c8:c1:cd:91:88:4d:21
-----BEGIN CERTIFICATE-----
MIIFxDCCA6ygAwIBAgICEAEwDQYJKoZIhvcNAQEEBQAwRDELMAkGA1UEBhMCVVMx
DTALBgNVBAgMBFV0YWgxFDASBgNVBAoMC2FuaXJ1ZGhsYXRoMRAwDgYDVQQDDAdj
YS1ob3N0MB4XDTIyMDQwNzIwMTExMloXDTIzMDQwNzIwMTExMlowSDELMAkGA1UE
BhMCVVMxDTALBgNVBAgMBFV0YWgxFDASBgNVBAoMC2FuaXJ1ZGhsYXRoMRQwEgYD
VQQDDAtjbGllbnQtaG9zdDCCAiIwDQYJKoZIhvcNAQEBBQADggIPADCCAgoCggIB
ALu/cHktGW1Dzkey8zv0G0na7q+tsipjNfOx+vCK5wnSzLJaE1/0KfG+Rf2XbmK5
IgXtGwctulZRHS6FQstAs7AegdIqIBMWIKghWeahTDqbzdncNM2nmcAKSLzSmcQT
CeVThKsCzl+ws05u1awpi/uyXs6zoycAmbvk3Eh7oXkreC9jgoNEZZaFKWW5jRhL
9VUxaFeWTDhbmChJv7lD7au1vCD6piShoaxGexi+mvehP+KeYHhaB8OPH87vbOPV
aBdSEmqIAPQIRKuv6Z/irSgaChGpaWwL0Ijb0t39JVqBuMDl4ABlP6Q6pwrRahrs
ugaTGMiV4LcdGzBF1bXwMnEHF6h8WJJIhLeoQSnfcdoR+2/hgEpWur1bH/vHRuTn
tLrejUTt5tFRMkftcWPyQk5EmqX1kdjGF+NHIAw+c/cq9M9E8H08GF3Vx+44POs4
D26AMY/lodcpyoVrmY5LpcxYXOSBsdl3ISlDasX3RLGYmi1oR/JcX46O7fGuhhjT
WBG8/popYeEJHOcVUd+f+gEyAvC1afin4Fyvd7izvDjnoz9TXNPkOPv1XhtCnzy6
Zko0QAS4oK/mGhLVGJWZ3uZlsBfXp9CHdB69NsDwScZ5oR6Y0dZtrdjY1rnfjPT8
4zueUq6Zkcqt/cjAViD4Kqt+A2Og5Wr1L4ekwOPzhIPjAgMBAAGjgbswgbgwCQYD
VR0TBAIwADAsBglghkgBhvhCAQ0EHxYdT3BlblNTTCBHZW5lcmF0ZWQgQ2VydGlm
aWNhdGUwHQYDVR0OBBYEFIPjYnu+Eiv44gpSEDS7QiRtSgCvMF4GA1UdIwRXMFWh
SKRGMEQxCzAJBgNVBAYTAlVTMQ0wCwYDVQQIDARVdGFoMRQwEgYDVQQKDAthbmly
dWRobGF0aDEQMA4GA1UEAwwHY2EtaG9zdIIJAJHHtMSR8/XHMA0GCSqGSIb3DQEB
BAUAA4ICAQAxySwn/unQIHGmjcjONA/7XDpTQbR7hTKFWqyYajG10HOJndVL0SWs
N21+QF2yLHTEH61B8k/RsZYLR17LmoEoH5HAgUA/5pic2G90KW56HDVUIUA1I8ET
JwW0TR2QKrYzzfABugDP8r0t+FERfWOpxACZDKDh2tlMftZtcHI63l++Tqi8i9xE
rivM+dO5GvrJU27eY0WjW8UBDCu3kkhoPrj4Miv1ySooUhTYY8yhMjKaLSuXoHnb
Xdn84RXhsY3mf5nYQ+K7+Xy6iyqs4gnzYprbgZdcTDDUGouyd9HubaM5/cKtw1xj
d0oeOajiizAKES1EuRbpGXnJEj4aRPR3355NbusYMoNgBIy8ALQSNChIyNV58dvU
fssLzaU+7GsjMuoj/h0myJVJs7SfmGSNK0E/O0kpVyMPrfiPFhAv0rLhDG4pqHgE
ZgjgKsk5Cn43BkD2OvWuCeBEOsZiwhofa7T9AGeiCwQ9vgEnFuGcvZGIW+WrmHIY
TAMpigBTc0A9gc4wLeRbZRbWmUUNA7yN/sLg5Misz/EXxEZSDgLheP3v7TcdPW/o
OivO5Xv3EdrDgHkFE9H78GHsJVsgwb+Pid6pnB9SZGxPFI26hd2fED5moB9osG0e
2H9NwnlaMn5I5qF4cEJUIxpqIdcVJy8KuigU5bZAOYL8yMHNkYhNIQ==
-----END CERTIFICATE-----
