Certificate:
    Data:
        Version: 3 (0x2)
        Serial Number: 4096 (0x1000)
    Signature Algorithm: md5WithRSAEncryption
        Issuer: C=US, ST=Utah, O=anirudhlath, CN=ca-host
        Validity
            Not Before: Apr  7 20:11:09 2022 GMT
            Not After : Apr  7 20:11:09 2023 GMT
        Subject: C=US, ST=Utah, O=anirudhlath, CN=server-host
        Subject Public Key Info:
            Public Key Algorithm: rsaEncryption
                Public-Key: (4096 bit)
                Modulus:
                    00:ac:6b:3e:6c:7c:43:94:26:55:79:59:cd:bb:82:
                    60:7d:b4:e9:91:48:60:5d:d4:ac:cc:fe:5a:96:aa:
                    b8:ff:1e:da:87:c9:23:40:98:79:7f:5c:ab:e4:b1:
                    ff:19:8f:83:90:cb:d1:eb:c3:21:3c:77:42:47:e5:
                    94:9d:21:f1:dc:34:2b:1e:4d:84:fa:b9:14:32:7e:
                    c8:c4:ca:9e:13:b5:1e:6a:df:1e:b7:d6:9c:d5:c3:
                    f6:20:34:48:17:2f:9e:10:93:93:fb:d5:c6:26:cd:
                    9a:60:92:ae:a1:db:1e:92:fe:10:83:ed:48:66:ec:
                    0f:b5:af:07:d0:c5:eb:0e:e7:dd:03:31:86:0c:86:
                    4b:7e:61:2f:91:b3:b3:fb:45:f4:ae:c6:c4:7f:6e:
                    1f:85:7e:90:29:1e:37:14:75:14:65:b7:f1:1e:5c:
                    9c:a2:93:ea:18:50:3b:04:21:09:c7:c4:1d:31:9f:
                    23:64:a6:e0:33:85:f0:99:ef:7b:c2:af:c1:b4:5f:
                    6b:ce:65:09:cb:22:5e:8f:21:94:53:c6:b0:04:15:
                    6c:e2:49:df:f1:2d:3b:a0:45:4c:41:88:9f:de:17:
                    f0:6b:97:4c:c9:1e:82:4d:74:40:16:3d:b2:6a:c2:
                    86:df:25:83:78:f8:d4:00:8e:c7:aa:b6:ca:bc:9e:
                    bf:04:6f:df:36:96:52:60:9f:09:0b:0a:62:9f:47:
                    f1:b7:18:c2:a1:e7:a4:12:44:68:5c:5e:5e:09:43:
                    d4:9c:69:76:83:5e:59:1e:73:b1:02:e1:c9:df:05:
                    0e:b9:64:92:c8:e5:51:10:3f:f2:f6:1c:ae:be:8f:
                    8e:0a:a3:c6:33:9e:cd:01:3a:71:f3:73:76:c0:e7:
                    8e:c9:ec:ef:fb:3b:b2:49:68:b6:eb:93:a2:e8:6a:
                    a5:bc:e4:87:f5:77:6d:b5:65:f0:c0:e3:18:f2:9c:
                    db:bf:26:88:fd:4a:e3:78:a5:5b:ea:99:6e:b1:70:
                    ba:57:50:15:ce:9e:d4:dc:61:44:7d:b0:5b:89:d9:
                    a9:15:8c:2e:4b:d7:93:b0:f2:e3:7c:c7:4d:8d:ba:
                    2e:2e:e8:ef:c4:64:e1:80:21:7c:23:e1:16:6e:1f:
                    37:6a:c0:8a:9a:c7:e5:22:e2:c7:74:20:ef:f0:8e:
                    f7:55:fb:b7:ae:2a:13:31:e9:89:71:64:71:a0:1e:
                    6f:46:0c:0d:50:cc:52:cd:77:69:4f:72:dc:64:14:
                    57:21:5f:db:5a:77:db:fc:0f:64:5a:0c:08:cf:eb:
                    2e:75:20:c6:f5:44:fb:22:bc:f5:d3:3c:df:8a:2a:
                    f6:42:ad:53:2f:37:f4:15:67:30:82:d8:3d:1d:4f:
                    78:90:23
                Exponent: 65537 (0x10001)
        X509v3 extensions:
            X509v3 Basic Constraints: 
                CA:FALSE
            Netscape Comment: 
                OpenSSL Generated Certificate
            X509v3 Subject Key Identifier: 
                C8:64:38:8B:D7:DE:9C:40:01:03:E7:A9:07:45:2B:8F:D0:E4:22:BA
            X509v3 Authority Key Identifier: 
                DirName:/C=US/ST=Utah/O=anirudhlath/CN=ca-host
                serial:91:C7:B4:C4:91:F3:F5:C7

    Signature Algorithm: md5WithRSAEncryption
         82:58:25:5e:cb:f6:6c:bd:d7:72:27:9b:88:19:ef:92:25:c9:
         18:d8:33:a5:b2:58:af:42:4a:e0:56:51:05:81:d4:5e:e6:27:
         ec:e4:bc:c9:4c:65:e2:4d:4e:e9:68:80:e8:ba:c0:1f:a3:b8:
         63:f4:25:1d:fb:7f:88:98:bb:2a:b9:7d:e3:8e:9f:5f:64:db:
         df:07:1a:63:f3:4f:06:3e:22:11:7d:7c:85:24:cf:80:a5:c5:
         dc:5c:fa:59:68:a4:98:5a:3e:fc:af:67:fe:b6:45:64:7c:d6:
         f4:7b:74:63:84:0d:97:9d:65:79:41:f2:d7:75:94:d5:7a:2d:
         35:11:2b:97:fe:c3:a4:66:62:e7:2a:8d:46:91:c6:47:70:9a:
         56:71:33:6b:30:7b:a9:96:a8:1b:cf:67:af:6e:91:94:81:59:
         fd:24:88:03:9c:c3:02:eb:82:70:87:bc:75:6c:52:df:a9:3a:
         df:3a:11:aa:0b:56:a5:e5:29:76:0b:d5:6c:8f:d8:1d:d1:6c:
         ad:a2:a7:95:7d:1f:fc:6f:b7:fc:67:7f:3c:39:d6:30:c1:7c:
         a1:21:e0:bc:ff:96:8a:ac:fa:9d:30:9a:bd:35:c6:76:d5:65:
         12:65:62:a1:c4:d0:23:06:64:10:45:e7:70:96:93:24:c4:f1:
         59:2a:e2:d0:d7:be:14:d8:b5:13:69:fb:c2:ee:58:fc:1f:a7:
         2d:79:fd:f0:84:dc:a8:70:92:2b:14:48:d4:3e:5f:b2:bf:49:
         be:bf:ce:c6:bb:6b:ba:39:f8:ea:81:f4:f3:bd:1f:fa:7f:d7:
         ca:03:52:e8:8c:89:09:c5:aa:9c:97:74:8d:38:b1:a2:90:ab:
         3a:23:03:8c:a1:45:1f:69:40:ab:89:4b:7e:c5:5a:16:a3:1f:
         f5:97:af:7d:6e:6f:ad:2f:36:11:cb:d7:e2:c8:f4:3b:b8:e6:
         7b:aa:bf:a9:72:97:51:63:8f:85:a5:6d:c1:0a:11:c8:9d:42:
         35:6e:23:7c:e3:e5:e6:8f:40:db:56:7b:2c:49:18:3c:62:37:
         d9:4b:c0:6c:3d:a0:54:4e:f4:0e:b8:aa:0c:42:46:4c:23:e8:
         19:c3:fd:75:e4:de:48:9e:c4:8a:32:44:1a:a2:21:2f:cb:f1:
         8e:ef:7a:0e:d2:2c:63:be:20:29:1b:d6:f2:25:b7:6d:4e:79:
         ce:47:e2:c1:ac:b9:52:38:1f:84:c1:a8:68:81:fd:43:5d:b4:
         0d:69:0d:08:0d:1b:48:cc:3b:fd:af:75:4b:e2:af:d6:31:dd:
         7b:f0:cd:be:1f:f2:f8:5d:2b:f9:ce:cf:c4:64:b4:3a:b0:20:
         bd:c5:17:7b:a6:8c:6a:b7
-----BEGIN CERTIFICATE-----
MIIFxDCCA6ygAwIBAgICEAAwDQYJKoZIhvcNAQEEBQAwRDELMAkGA1UEBhMCVVMx
DTALBgNVBAgMBFV0YWgxFDASBgNVBAoMC2FuaXJ1ZGhsYXRoMRAwDgYDVQQDDAdj
YS1ob3N0MB4XDTIyMDQwNzIwMTEwOVoXDTIzMDQwNzIwMTEwOVowSDELMAkGA1UE
BhMCVVMxDTALBgNVBAgMBFV0YWgxFDASBgNVBAoMC2FuaXJ1ZGhsYXRoMRQwEgYD
VQQDDAtzZXJ2ZXItaG9zdDCCAiIwDQYJKoZIhvcNAQEBBQADggIPADCCAgoCggIB
AKxrPmx8Q5QmVXlZzbuCYH206ZFIYF3UrMz+WpaquP8e2ofJI0CYeX9cq+Sx/xmP
g5DL0evDITx3QkfllJ0h8dw0Kx5NhPq5FDJ+yMTKnhO1HmrfHrfWnNXD9iA0SBcv
nhCTk/vVxibNmmCSrqHbHpL+EIPtSGbsD7WvB9DF6w7n3QMxhgyGS35hL5Gzs/tF
9K7GxH9uH4V+kCkeNxR1FGW38R5cnKKT6hhQOwQhCcfEHTGfI2Sm4DOF8Jnve8Kv
wbRfa85lCcsiXo8hlFPGsAQVbOJJ3/EtO6BFTEGIn94X8GuXTMkegk10QBY9smrC
ht8lg3j41ACOx6q2yryevwRv3zaWUmCfCQsKYp9H8bcYwqHnpBJEaFxeXglD1Jxp
doNeWR5zsQLhyd8FDrlkksjlURA/8vYcrr6PjgqjxjOezQE6cfNzdsDnjsns7/s7
sklotuuTouhqpbzkh/V3bbVl8MDjGPKc278miP1K43ilW+qZbrFwuldQFc6e1Nxh
RH2wW4nZqRWMLkvXk7Dy43zHTY26Li7o78Rk4YAhfCPhFm4fN2rAiprH5SLix3Qg
7/CO91X7t64qEzHpiXFkcaAeb0YMDVDMUs13aU9y3GQUVyFf21p32/wPZFoMCM/r
LnUgxvVE+yK89dM834oq9kKtUy839BVnMILYPR1PeJAjAgMBAAGjgbswgbgwCQYD
VR0TBAIwADAsBglghkgBhvhCAQ0EHxYdT3BlblNTTCBHZW5lcmF0ZWQgQ2VydGlm
aWNhdGUwHQYDVR0OBBYEFMhkOIvX3pxAAQPnqQdFK4/Q5CK6MF4GA1UdIwRXMFWh
SKRGMEQxCzAJBgNVBAYTAlVTMQ0wCwYDVQQIDARVdGFoMRQwEgYDVQQKDAthbmly
dWRobGF0aDEQMA4GA1UEAwwHY2EtaG9zdIIJAJHHtMSR8/XHMA0GCSqGSIb3DQEB
BAUAA4ICAQCCWCVey/ZsvddyJ5uIGe+SJckY2DOlslivQkrgVlEFgdRe5ifs5LzJ
TGXiTU7paIDousAfo7hj9CUd+3+ImLsquX3jjp9fZNvfBxpj808GPiIRfXyFJM+A
pcXcXPpZaKSYWj78r2f+tkVkfNb0e3RjhA2XnWV5QfLXdZTVei01ESuX/sOkZmLn
Ko1GkcZHcJpWcTNrMHuplqgbz2evbpGUgVn9JIgDnMMC64Jwh7x1bFLfqTrfOhGq
C1al5Sl2C9Vsj9gd0WytoqeVfR/8b7f8Z388OdYwwXyhIeC8/5aKrPqdMJq9NcZ2
1WUSZWKhxNAjBmQQRedwlpMkxPFZKuLQ174U2LUTafvC7lj8H6ctef3whNyocJIr
FEjUPl+yv0m+v87Gu2u6OfjqgfTzvR/6f9fKA1LojIkJxaqcl3SNOLGikKs6IwOM
oUUfaUCriUt+xVoWox/1l699bm+tLzYRy9fiyPQ7uOZ7qr+pcpdRY4+FpW3BChHI
nUI1biN84+Xmj0DbVnssSRg8YjfZS8BsPaBUTvQOuKoMQkZMI+gZw/115N5InsSK
MkQaoiEvy/GO73oO0ixjviApG9byJbdtTnnOR+LBrLlSOB+Ewahogf1DXbQNaQ0I
DRtIzDv9r3VL4q/WMd178M2+H/L4XSv5zs/EZLQ6sCC9xRd7poxqtw==
-----END CERTIFICATE-----
